target datalayout = "e-m:e-p270:32:32-p271:32:32-p272:64:64-i64:64-i128:128-f80:128-n8:16:32:64-S128"
target triple = "x86_64-pc-linux-gnu"

%struct.URLContext = type { ptr, ptr, ptr, ptr, i32, i32, i32, i32, %struct.AVIOInterruptCB, i64, ptr, ptr, i32 }
%struct.AVIOInterruptCB = type { ptr, ptr }
%struct.URLProtocol = type { ptr, ptr, ptr, ptr, ptr, ptr, ptr, ptr, ptr, ptr, ptr, ptr, ptr, ptr, ptr, ptr, i32, i32, ptr, ptr, ptr, ptr, ptr, ptr, ptr }

; Function Attrs: nounwind uwtable
define i32 @ffurl_closep(ptr noundef %0) #1 {
  %2 = alloca i32, align 4
  %3 = alloca ptr, align 8
  %4 = alloca ptr, align 8
  %5 = alloca i32, align 4
  %6 = alloca i32, align 4
  store ptr %0, ptr %3, align 8, !tbaa !48
  call void @llvm.lifetime.start.p0(i64 8, ptr %4) #10
  %7 = load ptr, ptr %3, align 8, !tbaa !48
  %8 = load ptr, ptr %7, align 8, !tbaa !22
  store ptr %8, ptr %4, align 8, !tbaa !22
  call void @llvm.lifetime.start.p0(i64 4, ptr %5) #10
  store i32 0, ptr %5, align 4, !tbaa !21
  %9 = load ptr, ptr %4, align 8, !tbaa !22
  %10 = icmp ne ptr %9, null
  br i1 %10, label %12, label %11

11:                                               ; preds = %1
  store i32 0, ptr %2, align 4
  store i32 1, ptr %6, align 4
  br label %66

12:                                               ; preds = %1
  %13 = load ptr, ptr %4, align 8, !tbaa !22
  %14 = getelementptr inbounds nuw %struct.URLContext, ptr %13, i32 0, i32 7
  %15 = load i32, ptr %14, align 4, !tbaa !45
  %16 = icmp ne i32 %15, 0
  br i1 %16, label %17, label %32

17:                                               ; preds = %12
  %18 = load ptr, ptr %4, align 8, !tbaa !22
  %19 = getelementptr inbounds nuw %struct.URLContext, ptr %18, i32 0, i32 1
  %20 = load ptr, ptr %19, align 8, !tbaa !38
  %21 = getelementptr inbounds nuw %struct.URLProtocol, ptr %20, i32 0, i32 8
  %22 = load ptr, ptr %21, align 8, !tbaa !86
  %23 = icmp ne ptr %22, null
  br i1 %23, label %24, label %32

24:                                               ; preds = %17
  %25 = load ptr, ptr %4, align 8, !tbaa !22
  %26 = getelementptr inbounds nuw %struct.URLContext, ptr %25, i32 0, i32 1
  %27 = load ptr, ptr %26, align 8, !tbaa !38
  %28 = getelementptr inbounds nuw %struct.URLProtocol, ptr %27, i32 0, i32 8
  %29 = load ptr, ptr %28, align 8, !tbaa !86
  %30 = load ptr, ptr %4, align 8, !tbaa !22
  %31 = call i32 %29(ptr noundef %30)
  store i32 %31, ptr %5, align 4, !tbaa !21
  br label %32

32:                                               ; preds = %24, %17, %12
  %33 = load ptr, ptr %4, align 8, !tbaa !22
  %34 = getelementptr inbounds nuw %struct.URLContext, ptr %33, i32 0, i32 1
  %35 = load ptr, ptr %34, align 8, !tbaa !38
  %36 = getelementptr inbounds nuw %struct.URLProtocol, ptr %35, i32 0, i32 17
  %37 = load i32, ptr %36, align 4, !tbaa !75
  %38 = and i32 %37, 2
  %39 = icmp ne i32 %38, 0
  br i1 %39, label %40, label %41

40:                                               ; preds = %32
  call void @ff_network_close()
  br label %41

41:                                               ; preds = %40, %32
  %42 = load ptr, ptr %4, align 8, !tbaa !22
  %43 = getelementptr inbounds nuw %struct.URLContext, ptr %42, i32 0, i32 1
  %44 = load ptr, ptr %43, align 8, !tbaa !38
  %45 = getelementptr inbounds nuw %struct.URLProtocol, ptr %44, i32 0, i32 16
  %46 = load i32, ptr %45, align 8, !tbaa !81
  %47 = icmp ne i32 %46, 0
  br i1 %47, label %48, label %62

48:                                               ; preds = %41
  %49 = load ptr, ptr %4, align 8, !tbaa !22
  %50 = getelementptr inbounds nuw %struct.URLContext, ptr %49, i32 0, i32 1
  %51 = load ptr, ptr %50, align 8, !tbaa !38
  %52 = getelementptr inbounds nuw %struct.URLProtocol, ptr %51, i32 0, i32 15
  %53 = load ptr, ptr %52, align 8, !tbaa !83
  %54 = icmp ne ptr %53, null
  br i1 %54, label %55, label %59

55:                                               ; preds = %48
  %56 = load ptr, ptr %4, align 8, !tbaa !22
  %57 = getelementptr inbounds nuw %struct.URLContext, ptr %56, i32 0, i32 2
  %58 = load ptr, ptr %57, align 8, !tbaa !82
  call void @av_opt_free(ptr noundef %58)
  br label %59

59:                                               ; preds = %55, %48
  %60 = load ptr, ptr %4, align 8, !tbaa !22
  %61 = getelementptr inbounds nuw %struct.URLContext, ptr %60, i32 0, i32 2
  call void @av_freep(ptr noundef %61)
  br label %62

62:                                               ; preds = %59, %41
  %63 = load ptr, ptr %4, align 8, !tbaa !22
  call void @av_opt_free(ptr noundef %63)
  %64 = load ptr, ptr %3, align 8, !tbaa !48
  call void @av_freep(ptr noundef %64)
  %65 = load i32, ptr %5, align 4, !tbaa !21
  store i32 %65, ptr %2, align 4
  store i32 1, ptr %6, align 4
  br label %66

66:                                               ; preds = %62, %11
  call void @llvm.lifetime.end.p0(i64 4, ptr %5) #10
  call void @llvm.lifetime.end.p0(i64 8, ptr %4) #10
  %67 = load i32, ptr %2, align 4
  ret i32 %67
}