; Function Attrs: nounwind uwtable
define i32 @ffurl_closep(ptr noundef %0) local_unnamed_addr #3 {
  %2 = load ptr, ptr %0, align 8, !tbaa !41
  %.not = icmp eq ptr %2, null
  br i1 %.not, label %33, label %3

3:                                                ; preds = %1
  %4 = getelementptr inbounds nuw i8, ptr %2, i64 44
  %5 = load i32, ptr %4, align 4, !tbaa !38
  %.not17 = icmp eq i32 %5, 0
  br i1 %.not17, label %13, label %6

6:                                                ; preds = %3
  %7 = getelementptr inbounds nuw i8, ptr %2, i64 8
  %8 = load ptr, ptr %7, align 8, !tbaa !21
  %9 = getelementptr inbounds nuw i8, ptr %8, i64 64
  %10 = load ptr, ptr %9, align 8, !tbaa !78
  %.not18 = icmp eq ptr %10, null
  br i1 %.not18, label %13, label %11

11:                                               ; preds = %6
  %12 = tail call i32 %10(ptr noundef nonnull %2) #12
  br label %13

13:                                               ; preds = %11, %6, %3
  %.0 = phi i32 [ %12, %11 ], [ 0, %6 ], [ 0, %3 ]
  %14 = getelementptr inbounds nuw i8, ptr %2, i64 8
  %15 = load ptr, ptr %14, align 8, !tbaa !21
  %16 = getelementptr inbounds nuw i8, ptr %15, i64 132
  %17 = load i32, ptr %16, align 4, !tbaa !63
  %18 = and i32 %17, 2
  %.not19 = icmp eq i32 %18, 0
  br i1 %.not19, label %20, label %19

19:                                               ; preds = %13
  tail call void @ff_network_close() #12
  %.pre = load ptr, ptr %14, align 8, !tbaa !21
  br label %20

20:                                               ; preds = %19, %13
  %21 = phi ptr [ %.pre, %19 ], [ %15, %13 ]
  %22 = getelementptr inbounds nuw i8, ptr %21, i64 128
  %23 = load i32, ptr %22, align 8, !tbaa !66
  %.not20 = icmp eq i32 %23, 0
  br i1 %.not20, label %32, label %24

24:                                               ; preds = %20
  %25 = getelementptr inbounds nuw i8, ptr %21, i64 120
  %26 = load ptr, ptr %25, align 8, !tbaa !68
  %.not21 = icmp eq ptr %26, null
  br i1 %.not21, label %30, label %27

27:                                               ; preds = %24
  %28 = getelementptr inbounds nuw i8, ptr %2, i64 16
  %29 = load ptr, ptr %28, align 8, !tbaa !67
  tail call void @av_opt_free(ptr noundef %29) #12
  br label %30

30:                                               ; preds = %27, %24
  %31 = getelementptr inbounds nuw i8, ptr %2, i64 16
  tail call void @av_freep(ptr noundef nonnull %31) #12
  br label %32

32:                                               ; preds = %30, %20
  tail call void @av_opt_free(ptr noundef nonnull %2) #12
  tail call void @av_freep(ptr noundef nonnull %0) #12
  br label %33

33:                                               ; preds = %1, %32
  %.014 = phi i32 [ %.0, %32 ], [ 0, %1 ]
  ret i32 %.014
}